Certificate:
    Data:
        Version: 3 (0x2)
        Serial Number: 2 (0x2)
        Signature Algorithm: md5WithRSAEncryption
        Issuer: C=US, ST=Massachusetts, L=Cambridge, O=FabFi/emailAddress=admin@fabfi.net, CN=FabFi Global Projects
        Validity
            Not Before: Sep 20 10:52:16 2011 GMT
            Not After : Sep 19 10:52:16 2012 GMT
        Subject: C=US, ST=Massachusetts, O=FabFi, CN=clientdemo001@fabfi.net/emailAddress=clientdemo001@fabfi.net
        Subject Public Key Info:
            Public Key Algorithm: rsaEncryption
            RSA Public Key: (2048 bit)
                Modulus (2048 bit):
                    00:cb:66:5d:48:69:cf:6c:34:32:dd:d1:4f:84:57:
                    ce:b9:82:3c:48:11:ec:ef:c0:ca:bf:36:ef:84:f8:
                    a0:78:34:fc:f2:0e:06:b2:2b:85:89:59:71:af:ff:
                    a9:13:33:d3:99:10:fd:5a:3f:ea:9a:39:fd:5c:62:
                    ae:c5:08:b4:03:14:c3:e8:38:d3:a2:f1:4e:5f:39:
                    32:04:9c:67:87:0b:eb:ca:3e:a4:68:3f:9d:89:37:
                    33:df:bb:a4:40:35:15:a0:6e:e8:29:eb:83:b3:51:
                    fb:a7:69:f7:e8:0f:7d:59:82:ad:e2:a3:e8:a4:8e:
                    b0:f4:83:43:a5:99:f1:9c:c6:66:e1:da:86:03:e1:
                    6e:e8:ae:d3:8f:72:ac:34:6d:b2:32:b5:b6:bf:85:
                    9e:d2:43:80:1b:bb:9c:25:01:8c:7a:e7:3a:85:b0:
                    e4:a5:7f:fd:79:74:cf:4a:9a:d4:ca:dd:d6:bc:dd:
                    8f:24:6f:ee:44:df:33:3f:98:69:61:e9:4a:5b:d5:
                    1d:f5:89:31:7f:21:e1:73:a5:80:68:c9:16:14:67:
                    ed:c8:49:9c:03:dd:e4:68:b5:59:17:94:de:8f:1f:
                    be:4c:45:bd:4b:bf:9c:f1:af:b8:89:d8:d7:94:35:
                    22:b7:56:cc:32:6a:ea:af:e6:78:7d:e4:2d:34:25:
                    9d:2b
                Exponent: 65537 (0x10001)
        X509v3 extensions:
            X509v3 Extended Key Usage: 
                TLS Web Client Authentication
    Signature Algorithm: md5WithRSAEncryption
        4d:3d:bc:3f:08:31:13:dc:6e:63:e9:70:aa:66:9c:d7:62:ca:
        6e:1a:60:ba:f7:05:14:b6:bb:a3:9d:51:25:d2:12:bc:2a:d8:
        56:a3:23:22:50:19:c5:44:8a:7f:c6:cb:81:12:bf:00:69:ed:
        25:f6:c0:9d:2e:b7:20:49:32:37:40:8a:52:a6:b5:52:e6:ac:
        4e:d6:26:58:b8:67:61:fb:99:02:b4:0e:d2:48:49:52:18:5a:
        98:7b:bb:0c:5b:a1:27:bf:7b:b2:74:69:af:7f:87:11:27:bf:
        39:7e:89:6b:72:90:ac:c6:58:27:e7:11:54:ba:bc:67:19:b7:
        0f:1a:96:0c:4f:c9:83:c4:0e:c0:7b:f8:0f:6c:d1:1a:b7:40:
        fc:fb:78:40:22:7f:d6:81:ca:aa:81:8a:63:e5:94:3b:c7:52:
        37:65:f5:3a:54:16:e7:06:4e:f4:19:ab:0a:f6:53:44:0b:31:
        a6:df:9b:a0:76:f7:26:89:0b:cd:ae:b5:2a:d6:3e:ba:ae:20:
        e4:4c:8e:e6:67:05:e4:40:69:24:98:ab:ce:fe:03:21:23:d8:
        48:45:06:f1:de:6e:6a:66:47:e5:59:11:93:64:2a:bf:cd:b1:
        75:1a:c8:27:e7:19:a8:a5:5c:49:be:07:10:0a:0f:8a:60:d1:
        75:fe:2a:0f
-----BEGIN CERTIFICATE-----
MIIDmzCCAoOgAwIBAgIBAjANBgkqhkiG9w0BAQQFADCBiTELMAkGA1UEBhMCVVMx
FjAUBgNVBAgTDU1hc3NhY2h1c2V0dHMxEjAQBgNVBAcTCUNhbWJyaWRnZTEOMAwG
A1UEChMFRmFiRmkxHjAcBgkqhkiG9w0BCQEWD2FkbWluQGZhYmZpLm5ldDEeMBwG
A1UEAxMVRmFiRmkgR2xvYmFsIFByb2plY3RzMB4XDTExMDkyMDEwNTIxNloXDTEy
MDkxOTEwNTIxNlowfzELMAkGA1UEBhMCVVMxFjAUBgNVBAgTDU1hc3NhY2h1c2V0
dHMxDjAMBgNVBAoTBUZhYkZpMSAwHgYDVQQDFBdjbGllbnRkZW1vMDAxQGZhYmZp
Lm5ldDEmMCQGCSqGSIb3DQEJARYXY2xpZW50ZGVtbzAwMUBmYWJmaS5uZXQwggEi
MA0GCSqGSIb3DQEBAQUAA4IBDwAwggEKAoIBAQDLZl1Iac9sNDLd0U+EV865gjxI
EezvwMq/Nu+E+KB4NPzyDgayK4WJWXGv/6kTM9OZEP1aP+qaOf1cYq7FCLQDFMPo
ONOi8U5fOTIEnGeHC+vKPqRoP52JNzPfu6RANRWgbugp64OzUfunaffoD31Zgq3i
o+ikjrD0g0OlmfGcxmbh2oYD4W7ortOPcqw0bbIytba/hZ7SQ4Abu5wlAYx65zqF
sOSlf/15dM9KmtTK3da83Y8kb+5E3zM/mGlh6Upb1R31iTF/IeFzpYBoyRYUZ+3I
SZwD3eRotVkXlN6PH75MRb1Lv5zxr7iJ2NeUNSK3Vswyauqv5nh95C00JZ0rAgMB
AAGjFzAVMBMGA1UdJQQMMAoGCCsGAQUFBwMCMA0GCSqGSIb3DQEBBAUAA4IBAQBN
Pbw/CDET3G5j6XCqZpzXYspuGmC69wUUtrujnVEl0hK8KthWoyMiUBnFRIp/xsuB
Er8Aae0l9sCdLrcgSTI3QIpSprVS5qxO1iZYuGdh+5kCtA7SSElSGFqYe7sMW6En
v3uydGmvf4cRJ785folrcpCsxlgn5xFUurxnGbcPGpYMT8mDxA7Ae/gPbNEat0D8
+3hAIn/WgcqqgYpj5ZQ7x1I3ZfU6VBbnBk70GasK9lNECzGm35ugdvcmiQvNrrUq
1j66riDkTI7mZwXkQGkkmKvO/gMhI9hIRQbx3m5qZkflWRGTZCq/zbF1Gsgn5xmo
pVxJvgcQCg+KYNF1/ioP
-----END CERTIFICATE-----
