Certificate:
    Data:
        Version: 3 (0x2)
        Serial Number: 2 (0x2)
        Signature Algorithm: md5WithRSAEncryption
        Issuer: C=US, ST=Massachusetts, L=Cambridge, O=FabFi/emailAddress=admin@fabfi.net, CN=FabFi Global Projects
        Validity
            Not Before: Sep 20 20:45:30 2011 GMT
            Not After : Sep 19 20:45:30 2012 GMT
        Subject: C=US, ST=Massachusetts, O=FabFi, CN=clientdemo001@fabfi.net/emailAddress=clientdemo001@fabfi.net
        Subject Public Key Info:
            Public Key Algorithm: rsaEncryption
                Public-Key: (2048 bit)
                Modulus:
                    00:b2:88:81:ba:86:c2:1b:aa:d0:f7:bc:8d:b9:87:
                    f3:ab:f8:f0:6b:26:f8:1c:45:78:2b:4f:04:40:a3:
                    8a:9b:8f:ae:23:77:16:e3:17:38:64:1e:4a:17:cb:
                    5c:1b:67:c2:29:43:87:49:38:2b:6a:a2:4b:59:90:
                    b9:01:e8:c0:25:cf:9b:13:94:d8:6d:6c:3f:d9:95:
                    41:38:a0:4b:b0:d6:8b:e5:6b:c8:aa:19:55:5e:af:
                    34:40:16:c2:f0:1f:33:66:f7:c3:a1:bf:f7:fd:d3:
                    82:f8:3d:2d:88:cc:47:45:b9:45:16:2d:64:df:56:
                    12:cb:11:ef:bd:e9:0f:ed:a8:b6:b3:92:14:41:1f:
                    6e:30:8c:78:7b:c2:ea:47:65:04:6d:55:2c:4f:51:
                    9e:88:0c:b7:2c:25:11:2c:0e:1f:e6:cf:cb:8f:37:
                    1d:f4:e1:5d:05:c4:0f:38:2c:21:4d:49:d6:d1:89:
                    c3:fa:04:35:0d:fe:33:d9:fb:15:19:54:db:da:c0:
                    20:7b:67:db:81:92:69:97:29:25:5c:9a:5a:49:ee:
                    b8:1c:67:17:9a:0d:8a:c1:03:96:cb:93:16:7c:d9:
                    52:55:83:43:af:34:a5:6e:79:7c:2a:29:d8:cc:ad:
                    d9:39:7f:3e:1c:0c:5d:89:58:34:be:48:ff:11:68:
                    87:21
                Exponent: 65537 (0x10001)
        X509v3 extensions:
            X509v3 Extended Key Usage: 
                TLS Web Client Authentication
    Signature Algorithm: md5WithRSAEncryption
        3c:68:bb:63:d5:7a:34:68:74:27:2b:60:bc:7b:7b:a4:3a:b4:
        97:8a:2b:01:5e:d0:b1:e7:e1:c9:e1:fb:ca:cc:95:f1:c7:51:
        b7:f9:14:6c:bc:2c:08:e9:8a:cd:91:aa:5f:6a:a0:00:6b:27:
        fb:4c:90:c3:0c:ea:00:a4:5d:4d:21:cf:32:2a:90:c6:a8:65:
        4e:0f:c7:89:8e:83:14:69:05:b1:b2:65:07:eb:ad:78:f7:47:
        34:67:2f:42:eb:7f:5e:1a:cf:86:f0:4f:f1:f7:2e:db:73:3d:
        81:ab:47:10:62:62:dc:2d:30:57:0d:63:61:a3:f0:cc:a4:0f:
        6e:25:9e:7b:0a:4a:1c:7f:32:a2:3d:b6:0d:71:50:df:74:f6:
        9f:27:5f:d5:48:97:14:d9:41:6a:7a:9c:dc:4a:be:53:53:55:
        8a:e3:a8:52:b5:6c:f7:0c:3b:83:9b:28:31:74:d9:75:08:32:
        0e:4b:8f:89:e2:60:de:68:23:ce:a7:74:39:ce:cf:38:b2:b3:
        55:d6:e7:00:62:ba:ad:b3:1b:91:0d:9b:95:8c:c2:53:64:aa:
        c3:ad:80:82:b7:0f:9d:75:c2:d7:bf:a7:1e:ca:5d:6b:90:98:
        63:26:80:80:17:5f:51:29:aa:bf:45:2c:7a:56:c4:1e:ba:19:
        42:c1:df:54
-----BEGIN CERTIFICATE-----
MIIDmzCCAoOgAwIBAgIBAjANBgkqhkiG9w0BAQQFADCBiTELMAkGA1UEBhMCVVMx
FjAUBgNVBAgTDU1hc3NhY2h1c2V0dHMxEjAQBgNVBAcTCUNhbWJyaWRnZTEOMAwG
A1UEChMFRmFiRmkxHjAcBgkqhkiG9w0BCQEWD2FkbWluQGZhYmZpLm5ldDEeMBwG
A1UEAxMVRmFiRmkgR2xvYmFsIFByb2plY3RzMB4XDTExMDkyMDIwNDUzMFoXDTEy
MDkxOTIwNDUzMFowfzELMAkGA1UEBhMCVVMxFjAUBgNVBAgTDU1hc3NhY2h1c2V0
dHMxDjAMBgNVBAoTBUZhYkZpMSAwHgYDVQQDFBdjbGllbnRkZW1vMDAxQGZhYmZp
Lm5ldDEmMCQGCSqGSIb3DQEJARYXY2xpZW50ZGVtbzAwMUBmYWJmaS5uZXQwggEi
MA0GCSqGSIb3DQEBAQUAA4IBDwAwggEKAoIBAQCyiIG6hsIbqtD3vI25h/Or+PBr
JvgcRXgrTwRAo4qbj64jdxbjFzhkHkoXy1wbZ8IpQ4dJOCtqoktZkLkB6MAlz5sT
lNhtbD/ZlUE4oEuw1ovla8iqGVVerzRAFsLwHzNm98Ohv/f904L4PS2IzEdFuUUW
LWTfVhLLEe+96Q/tqLazkhRBH24wjHh7wupHZQRtVSxPUZ6IDLcsJREsDh/mz8uP
Nx304V0FxA84LCFNSdbRicP6BDUN/jPZ+xUZVNvawCB7Z9uBkmmXKSVcmlpJ7rgc
ZxeaDYrBA5bLkxZ82VJVg0OvNKVueXwqKdjMrdk5fz4cDF2JWDS+SP8RaIchAgMB
AAGjFzAVMBMGA1UdJQQMMAoGCCsGAQUFBwMCMA0GCSqGSIb3DQEBBAUAA4IBAQA8
aLtj1Xo0aHQnK2C8e3ukOrSXiisBXtCx5+HJ4fvKzJXxx1G3+RRsvCwI6YrNkapf
aqAAayf7TJDDDOoApF1NIc8yKpDGqGVOD8eJjoMUaQWxsmUH661490c0Zy9C639e
Gs+G8E/x9y7bcz2Bq0cQYmLcLTBXDWNho/DMpA9uJZ57CkocfzKiPbYNcVDfdPaf
J1/VSJcU2UFqepzcSr5TU1WK46hStWz3DDuDmygxdNl1CDIOS4+J4mDeaCPOp3Q5
zs84srNV1ucAYrqtsxuRDZuVjMJTZKrDrYCCtw+ddcLXv6ceyl1rkJhjJoCAF19R
Kaq/RSx6VsQeuhlCwd9U
-----END CERTIFICATE-----
