Certificate:
    Data:
        Version: 3 (0x2)
        Serial Number: 2 (0x2)
        Signature Algorithm: md5WithRSAEncryption
        Issuer: C=US, ST=Massachusetts, L=Cambridge, O=FabFi/emailAddress=admin@fabfi.net, CN=FabFi Global Projects
        Validity
            Not Before: Sep  1 15:43:40 2011 GMT
            Not After : Aug 31 15:43:40 2012 GMT
        Subject: C=US, ST=Massachusetts, O=FabFi, CN=clientdemo001@fabfi.net/emailAddress=clientdemo001@fabfi.net
        Subject Public Key Info:
            Public Key Algorithm: rsaEncryption
                Public-Key: (2048 bit)
                Modulus:
                    00:9a:a0:2e:d2:70:22:ac:91:e8:10:21:e6:5b:fe:
                    51:f0:17:20:22:1d:74:8d:75:41:98:3e:e7:33:7c:
                    3b:c3:ed:a5:c4:aa:3a:66:71:4b:1f:e3:4f:73:ac:
                    88:9b:0b:21:0b:52:6a:37:10:e3:1d:97:c0:8e:72:
                    d6:99:07:45:16:fb:8d:30:5a:29:fb:c9:db:3c:fa:
                    01:c4:67:ff:44:0f:9a:64:1b:dc:fe:2a:d2:ca:49:
                    77:2e:2a:54:b4:fe:95:e1:6b:e5:1a:71:47:c5:5a:
                    9c:6f:7b:2a:21:e0:bc:3b:75:c6:61:c7:5e:8f:1c:
                    5a:52:7d:f4:75:b3:5d:db:d0:bf:fb:58:03:78:f1:
                    a7:37:80:a1:b8:a5:85:7f:ce:02:0c:ac:ff:8f:97:
                    63:d8:49:50:63:44:31:08:3f:ff:02:74:59:d6:49:
                    bf:5f:69:9f:34:69:a9:95:10:3c:a3:4c:fa:79:d7:
                    6e:c6:d4:ef:e8:aa:7b:32:bb:d4:da:8f:b8:63:9c:
                    6e:43:38:d1:0c:70:4d:9a:00:92:bd:f0:2c:4a:ce:
                    d7:96:8a:cc:69:4f:11:1c:7e:53:e2:03:33:3e:f7:
                    15:f6:ea:23:f8:9c:78:a8:51:d5:e3:78:c5:a1:36:
                    72:2d:aa:f4:17:6f:3d:6b:f4:cd:22:8d:4e:ba:c7:
                    1f:35
                Exponent: 65537 (0x10001)
        X509v3 extensions:
            X509v3 Extended Key Usage: 
                TLS Web Client Authentication
    Signature Algorithm: md5WithRSAEncryption
        17:d6:a0:66:e5:b3:75:e6:18:0b:b6:6b:0d:31:c7:a2:91:2e:
        27:29:3a:a5:6b:48:c4:7b:d2:3e:ea:b8:1a:c9:7f:21:14:a2:
        54:4a:94:e4:00:63:8d:00:56:09:03:56:66:cc:8e:36:fd:a3:
        fa:a4:49:c1:23:fc:8a:b6:46:8d:6e:a8:20:3b:1f:d5:83:99:
        d8:ba:1e:f7:19:31:6b:d5:f8:e7:90:32:a2:13:36:b9:6e:42:
        b9:67:42:09:ea:23:58:cf:b2:54:c2:ba:d5:dd:77:8f:61:25:
        44:9c:4c:2e:ed:a6:12:b0:23:f0:b3:08:e2:0d:56:4e:ef:9a:
        10:53:c0:2e:8f:ed:c8:c3:e8:0f:14:c3:bb:10:60:6a:c4:11:
        4f:d5:05:b2:b4:e5:cb:cd:f5:8c:28:17:1d:17:cf:b2:e9:3e:
        03:18:50:e9:45:60:01:e9:3c:38:e2:10:fb:94:26:d9:0a:88:
        a6:10:12:d8:a9:22:d2:0d:4b:96:27:d3:5c:0a:81:5b:1e:8c:
        6e:fc:0a:7d:9f:fa:74:a4:47:9c:ac:e5:3f:3d:b0:68:64:3d:
        cf:3d:43:a9:12:bf:c0:a5:32:9c:53:03:14:be:75:45:6d:67:
        f3:f9:59:f4:26:5e:a7:2b:12:45:9e:a9:e6:8a:2d:75:67:be:
        c2:ea:be:da
-----BEGIN CERTIFICATE-----
MIIDmzCCAoOgAwIBAgIBAjANBgkqhkiG9w0BAQQFADCBiTELMAkGA1UEBhMCVVMx
FjAUBgNVBAgTDU1hc3NhY2h1c2V0dHMxEjAQBgNVBAcTCUNhbWJyaWRnZTEOMAwG
A1UEChMFRmFiRmkxHjAcBgkqhkiG9w0BCQEWD2FkbWluQGZhYmZpLm5ldDEeMBwG
A1UEAxMVRmFiRmkgR2xvYmFsIFByb2plY3RzMB4XDTExMDkwMTE1NDM0MFoXDTEy
MDgzMTE1NDM0MFowfzELMAkGA1UEBhMCVVMxFjAUBgNVBAgTDU1hc3NhY2h1c2V0
dHMxDjAMBgNVBAoTBUZhYkZpMSAwHgYDVQQDFBdjbGllbnRkZW1vMDAxQGZhYmZp
Lm5ldDEmMCQGCSqGSIb3DQEJARYXY2xpZW50ZGVtbzAwMUBmYWJmaS5uZXQwggEi
MA0GCSqGSIb3DQEBAQUAA4IBDwAwggEKAoIBAQCaoC7ScCKskegQIeZb/lHwFyAi
HXSNdUGYPuczfDvD7aXEqjpmcUsf409zrIibCyELUmo3EOMdl8COctaZB0UW+40w
Win7yds8+gHEZ/9ED5pkG9z+KtLKSXcuKlS0/pXha+UacUfFWpxveyoh4Lw7dcZh
x16PHFpSffR1s13b0L/7WAN48ac3gKG4pYV/zgIMrP+Pl2PYSVBjRDEIP/8CdFnW
Sb9faZ80aamVEDyjTPp5127G1O/oqnsyu9Taj7hjnG5DONEMcE2aAJK98CxKzteW
isxpTxEcflPiAzM+9xX26iP4nHioUdXjeMWhNnItqvQXbz1r9M0ijU66xx81AgMB
AAGjFzAVMBMGA1UdJQQMMAoGCCsGAQUFBwMCMA0GCSqGSIb3DQEBBAUAA4IBAQAX
1qBm5bN15hgLtmsNMceikS4nKTqla0jEe9I+6rgayX8hFKJUSpTkAGONAFYJA1Zm
zI42/aP6pEnBI/yKtkaNbqggOx/Vg5nYuh73GTFr1fjnkDKiEza5bkK5Z0IJ6iNY
z7JUwrrV3XePYSVEnEwu7aYSsCPwswjiDVZO75oQU8Auj+3Iw+gPFMO7EGBqxBFP
1QWytOXLzfWMKBcdF8+y6T4DGFDpRWAB6Tw44hD7lCbZCoimEBLYqSLSDUuWJ9Nc
CoFbHoxu/Ap9n/p0pEecrOU/PbBoZD3PPUOpEr/ApTKcUwMUvnVFbWfz+Vn0Jl6n
KxJFnqnmii11Z77C6r7a
-----END CERTIFICATE-----
