Certificate:
    Data:
        Version: 3 (0x2)
        Serial Number: 2 (0x2)
        Signature Algorithm: md5WithRSAEncryption
        Issuer: C=FR, ST=Radius, L=Somewhere, O=Example Inc./emailAddress=admin@example.com, CN=Example Certificate Authority
        Validity
            Not Before: Aug 29 15:55:46 2011 GMT
            Not After : Aug 28 15:55:46 2012 GMT
        Subject: C=FR, ST=Radius, O=Example Inc., CN=user@example.com/emailAddress=user@example.com
        Subject Public Key Info:
            Public Key Algorithm: rsaEncryption
                Public-Key: (2048 bit)
                Modulus:
                    00:e1:8a:6b:4a:8b:07:92:52:d6:81:a2:bb:66:0c:
                    37:86:7c:06:f0:e2:eb:58:84:97:11:67:03:d6:6f:
                    35:dd:dd:a2:e9:0f:8a:ff:aa:08:61:61:3f:7b:fc:
                    c9:84:d0:df:36:50:20:da:39:74:a8:36:77:ef:de:
                    0d:87:04:eb:87:77:7b:da:6b:4e:fd:e6:aa:83:63:
                    7a:b7:96:c5:e9:87:b6:80:5e:c8:08:17:74:61:f1:
                    14:50:d8:b0:59:43:18:43:1a:4f:b8:ea:4e:11:15:
                    5f:ed:91:db:5d:82:56:8c:0a:8d:c0:a2:c1:83:a0:
                    a7:ce:90:a2:0e:a3:1a:8e:8d:18:bd:a7:8c:bc:95:
                    c9:56:5d:a0:8a:42:93:47:dc:42:b7:6b:00:60:d5:
                    a4:e6:c3:40:a3:a3:ca:9f:62:8d:5b:4a:df:df:d1:
                    24:c7:ea:9b:b3:eb:53:0e:f8:b9:fd:97:11:27:4b:
                    4f:1b:0f:a3:b2:32:2f:8f:16:60:1a:80:35:65:a7:
                    82:7d:30:23:ae:d2:04:71:78:5a:6c:25:06:56:85:
                    86:e0:eb:85:b1:0f:53:23:ba:06:a9:68:7b:fb:2b:
                    fc:49:12:04:a9:71:48:b8:f9:26:ed:9f:e4:7e:4b:
                    15:50:31:ae:97:c7:89:ec:d5:af:7c:66:e5:44:98:
                    1b:57
                Exponent: 65537 (0x10001)
        X509v3 extensions:
            X509v3 Extended Key Usage: 
                TLS Web Client Authentication
    Signature Algorithm: md5WithRSAEncryption
        9a:22:50:43:99:22:d0:20:5a:6e:31:6a:ab:93:08:16:d0:84:
        29:e4:18:a1:80:fc:97:a6:15:18:ba:b4:14:f4:2e:76:32:91:
        b0:61:10:6d:70:eb:e6:9d:72:7b:64:b1:8c:0a:fe:fe:32:91:
        d1:60:99:51:6b:63:ca:d9:a4:3c:88:4d:9f:dd:9f:18:59:63:
        df:62:be:fe:fa:ce:af:dc:8b:1e:db:b4:ff:47:e9:43:7b:07:
        39:f4:b7:60:54:46:61:f8:62:3f:76:72:2e:c5:93:3b:9f:13:
        d6:20:2f:6b:c4:40:f8:b5:79:e1:fa:f5:47:0f:1c:d3:97:6e:
        ea:16:99:2f:ff:6a:69:3b:d2:4f:d4:01:31:4d:04:d9:be:19:
        d1:d3:0e:d7:36:be:67:e2:2b:0a:ef:3c:3f:74:6c:c6:cc:2f:
        b2:4a:59:aa:95:79:a9:eb:18:37:89:6b:0e:14:48:ea:47:7b:
        56:de:e2:0c:12:a0:ac:9b:da:5d:75:7e:a9:df:18:28:81:91:
        d2:51:58:0c:9c:44:51:d0:4b:95:ee:b6:cb:f1:49:e2:93:1f:
        c7:d9:39:03:c2:d8:07:3f:a3:dd:6d:32:27:10:4a:ef:7b:55:
        09:d2:04:76:35:bc:4b:21:88:54:81:42:fe:cf:56:92:44:52:
        ba:a8:42:71
-----BEGIN CERTIFICATE-----
MIIDlzCCAn+gAwIBAgIBAjANBgkqhkiG9w0BAQQFADCBkzELMAkGA1UEBhMCRlIx
DzANBgNVBAgTBlJhZGl1czESMBAGA1UEBxMJU29tZXdoZXJlMRUwEwYDVQQKEwxF
eGFtcGxlIEluYy4xIDAeBgkqhkiG9w0BCQEWEWFkbWluQGV4YW1wbGUuY29tMSYw
JAYDVQQDEx1FeGFtcGxlIENlcnRpZmljYXRlIEF1dGhvcml0eTAeFw0xMTA4Mjkx
NTU1NDZaFw0xMjA4MjgxNTU1NDZaMHExCzAJBgNVBAYTAkZSMQ8wDQYDVQQIEwZS
YWRpdXMxFTATBgNVBAoTDEV4YW1wbGUgSW5jLjEZMBcGA1UEAxQQdXNlckBleGFt
cGxlLmNvbTEfMB0GCSqGSIb3DQEJARYQdXNlckBleGFtcGxlLmNvbTCCASIwDQYJ
KoZIhvcNAQEBBQADggEPADCCAQoCggEBAOGKa0qLB5JS1oGiu2YMN4Z8BvDi61iE
lxFnA9ZvNd3doukPiv+qCGFhP3v8yYTQ3zZQINo5dKg2d+/eDYcE64d3e9prTv3m
qoNjereWxemHtoBeyAgXdGHxFFDYsFlDGEMaT7jqThEVX+2R212CVowKjcCiwYOg
p86Qog6jGo6NGL2njLyVyVZdoIpCk0fcQrdrAGDVpObDQKOjyp9ijVtK39/RJMfq
m7PrUw74uf2XESdLTxsPo7IyL48WYBqANWWngn0wI67SBHF4WmwlBlaFhuDrhbEP
UyO6Bqloe/sr/EkSBKlxSLj5Ju2f5H5LFVAxrpfHiezVr3xm5USYG1cCAwEAAaMX
MBUwEwYDVR0lBAwwCgYIKwYBBQUHAwIwDQYJKoZIhvcNAQEEBQADggEBAJoiUEOZ
ItAgWm4xaquTCBbQhCnkGKGA/JemFRi6tBT0LnYykbBhEG1w6+adcntksYwK/v4y
kdFgmVFrY8rZpDyITZ/dnxhZY99ivv76zq/cix7btP9H6UN7Bzn0t2BURmH4Yj92
ci7FkzufE9YgL2vEQPi1eeH69UcPHNOXbuoWmS//amk70k/UATFNBNm+GdHTDtc2
vmfiKwrvPD90bMbML7JKWaqVeanrGDeJaw4USOpHe1be4gwSoKyb2l11fqnfGCiB
kdJRWAycRFHQS5XutsvxSeKTH8fZOQPC2Ac/o91tMicQSu97VQnSBHY1vEshiFSB
Qv7PVpJEUrqoQnE=
-----END CERTIFICATE-----
