Certificate:
    Data:
        Version: 3 (0x2)
        Serial Number: 1 (0x1)
        Signature Algorithm: md5WithRSAEncryption
        Issuer: C=FR, ST=Radius, L=Somewhere, O=Example Inc./emailAddress=admin@example.com, CN=Example Certificate Authority
        Validity
            Not Before: Aug 29 15:08:38 2011 GMT
            Not After : Aug 28 15:08:38 2012 GMT
        Subject: C=FR, ST=Radius, O=Example Inc., CN=Example Server Certificate/emailAddress=admin@example.com
        Subject Public Key Info:
            Public Key Algorithm: rsaEncryption
                Public-Key: (2048 bit)
                Modulus:
                    00:d4:51:0e:46:1f:ae:44:7d:59:d5:72:3a:d8:a6:
                    4b:14:42:1e:80:14:4c:5f:5f:a7:c0:b0:47:d3:40:
                    09:f4:ba:ec:27:2c:de:4e:04:55:40:14:92:aa:0a:
                    9b:e3:91:5b:49:b9:f6:2a:07:1c:b7:43:10:c6:df:
                    2c:18:36:59:58:0a:a8:fd:db:57:5f:3f:31:53:c6:
                    a0:3b:54:b7:88:c9:ef:68:1c:e3:15:9d:5a:5e:46:
                    19:3b:29:3e:5a:5d:8b:91:1d:58:d4:2d:88:8c:e2:
                    ea:a1:da:42:dc:a2:7d:66:7c:81:87:a8:70:2b:6f:
                    0b:0b:84:71:3b:53:41:b1:99:39:d8:d5:f8:b9:60:
                    80:ca:61:c3:d2:47:1e:f4:b4:cc:2c:83:78:cd:19:
                    ce:f0:2f:10:87:88:ea:a1:45:10:fe:9d:f9:f2:36:
                    66:a3:a6:e2:92:a6:0c:c1:4a:db:ee:fb:c6:bd:51:
                    01:b3:44:1e:e2:c7:ed:17:60:29:fc:0e:42:db:a7:
                    e8:b0:95:0d:e9:cf:86:09:cc:2e:1a:36:61:db:7f:
                    8c:d7:95:38:68:72:47:65:fc:b1:e2:69:68:6a:f1:
                    d6:11:a2:32:85:cb:27:37:57:32:38:ae:06:59:f1:
                    22:a5:9c:1b:4e:fa:c5:af:03:1e:15:11:14:93:68:
                    27:ff
                Exponent: 65537 (0x10001)
        X509v3 extensions:
            X509v3 Extended Key Usage: 
                TLS Web Server Authentication
    Signature Algorithm: md5WithRSAEncryption
        2f:9b:e2:31:7f:e8:19:a3:90:bb:70:17:b9:cf:f2:e6:96:1e:
        f0:42:72:cb:88:2d:aa:42:74:e4:9c:7d:8a:93:9c:41:5c:c8:
        5e:94:a9:ba:1b:cb:02:78:b3:f6:bd:34:ac:8c:7d:be:23:06:
        b3:39:69:d1:c5:67:32:48:f5:e3:77:ea:cc:ab:e5:c9:b1:64:
        42:3d:00:aa:29:ae:d7:05:d0:18:d5:6f:91:66:8d:ec:b2:5e:
        44:17:dd:c6:07:6f:e2:30:b4:6d:55:14:4f:e6:80:2f:d9:1f:
        88:58:92:6a:c0:81:43:1a:5c:d5:eb:6d:58:ad:20:a8:f6:a5:
        9c:00:b0:bb:09:28:f8:a3:04:5a:5b:20:a3:d2:eb:7d:ee:7c:
        0a:db:10:7c:35:94:0a:f9:b9:93:d6:99:84:c0:6f:12:ff:dc:
        69:2d:d3:81:c1:6e:b4:ca:ab:a9:dd:30:c0:aa:ff:b2:16:d3:
        41:65:8a:55:35:c9:37:ed:94:1a:e8:96:fc:01:aa:83:da:e8:
        9d:78:17:6e:fd:c5:5d:6c:a2:b8:07:92:41:b9:5a:f5:bd:91:
        73:a5:4b:14:ad:02:8b:5e:89:3f:94:b0:84:11:c1:92:89:3f:
        a9:93:6f:cb:92:c8:8b:e4:04:a7:b7:3a:2a:0b:f8:57:3c:b2:
        f1:a5:39:6a
-----BEGIN CERTIFICATE-----
MIIDojCCAoqgAwIBAgIBATANBgkqhkiG9w0BAQQFADCBkzELMAkGA1UEBhMCRlIx
DzANBgNVBAgTBlJhZGl1czESMBAGA1UEBxMJU29tZXdoZXJlMRUwEwYDVQQKEwxF
eGFtcGxlIEluYy4xIDAeBgkqhkiG9w0BCQEWEWFkbWluQGV4YW1wbGUuY29tMSYw
JAYDVQQDEx1FeGFtcGxlIENlcnRpZmljYXRlIEF1dGhvcml0eTAeFw0xMTA4Mjkx
NTA4MzhaFw0xMjA4MjgxNTA4MzhaMHwxCzAJBgNVBAYTAkZSMQ8wDQYDVQQIEwZS
YWRpdXMxFTATBgNVBAoTDEV4YW1wbGUgSW5jLjEjMCEGA1UEAxMaRXhhbXBsZSBT
ZXJ2ZXIgQ2VydGlmaWNhdGUxIDAeBgkqhkiG9w0BCQEWEWFkbWluQGV4YW1wbGUu
Y29tMIIBIjANBgkqhkiG9w0BAQEFAAOCAQ8AMIIBCgKCAQEA1FEORh+uRH1Z1XI6
2KZLFEIegBRMX1+nwLBH00AJ9LrsJyzeTgRVQBSSqgqb45FbSbn2Kgcct0MQxt8s
GDZZWAqo/dtXXz8xU8agO1S3iMnvaBzjFZ1aXkYZOyk+Wl2LkR1Y1C2IjOLqodpC
3KJ9ZnyBh6hwK28LC4RxO1NBsZk52NX4uWCAymHD0kce9LTMLIN4zRnO8C8Qh4jq
oUUQ/p358jZmo6bikqYMwUrb7vvGvVEBs0Qe4sftF2Ap/A5C26fosJUN6c+GCcwu
GjZh23+M15U4aHJHZfyx4mloavHWEaIyhcsnN1cyOK4GWfEipZwbTvrFrwMeFREU
k2gn/wIDAQABoxcwFTATBgNVHSUEDDAKBggrBgEFBQcDATANBgkqhkiG9w0BAQQF
AAOCAQEAL5viMX/oGaOQu3AXuc/y5pYe8EJyy4gtqkJ05Jx9ipOcQVzIXpSpuhvL
Aniz9r00rIx9viMGszlp0cVnMkj143fqzKvlybFkQj0Aqimu1wXQGNVvkWaN7LJe
RBfdxgdv4jC0bVUUT+aAL9kfiFiSasCBQxpc1ettWK0gqPalnACwuwko+KMEWlsg
o9Lrfe58CtsQfDWUCvm5k9aZhMBvEv/caS3TgcFutMqrqd0wwKr/shbTQWWKVTXJ
N+2UGuiW/AGqg9ronXgXbv3FXWyiuAeSQbla9b2Rc6VLFK0Ci16JP5SwhBHBkok/
qZNvy5LIi+QEp7c6Kgv4Vzyy8aU5ag==
-----END CERTIFICATE-----
