Certificate:
    Data:
        Version: 3 (0x2)
        Serial Number: 1 (0x1)
        Signature Algorithm: md5WithRSAEncryption
        Issuer: C=US, ST=Massachusetts, L=Cambridge, O=FabFi/emailAddress=admin@fabfi.net, CN=FabFi Global Projects
        Validity
            Not Before: Sep 20 10:52:11 2011 GMT
            Not After : Sep 19 10:52:11 2012 GMT
        Subject: C=US, ST=Massachusetts, O=FabFi, CN=USA Server Certificate/emailAddress=admin@fabfi.net
        Subject Public Key Info:
            Public Key Algorithm: rsaEncryption
            RSA Public Key: (2048 bit)
                Modulus (2048 bit):
                    00:d1:7f:9d:51:6d:82:f5:07:d8:e5:40:95:11:30:
                    9c:e3:66:6c:b7:1e:79:85:e4:64:5b:09:4b:2c:32:
                    5b:d6:f1:33:c9:d2:41:ea:b6:5d:a7:4f:d8:4f:4c:
                    05:21:c5:fc:5f:b8:b6:ef:22:25:76:29:9f:c1:70:
                    9e:5b:23:67:ad:fe:a3:f5:b1:20:0e:65:ca:66:64:
                    ee:37:50:d2:fb:9c:92:dd:3b:d9:aa:e6:57:11:be:
                    70:6a:55:02:b5:c8:78:f5:10:85:84:31:7b:a3:88:
                    89:e1:35:40:ee:82:36:f8:77:d7:fc:a8:f9:57:01:
                    10:4f:a6:de:ca:be:51:8b:56:6a:c1:98:b0:28:12:
                    49:5f:dc:e6:33:4c:d8:35:38:d0:97:e5:17:dd:27:
                    78:6a:d9:4b:cb:d7:e8:81:54:09:20:bc:eb:4f:99:
                    aa:1e:90:32:93:e1:15:dd:c3:c2:1f:a5:21:39:ea:
                    52:a0:09:e3:02:ad:4b:78:5f:52:d7:de:e0:44:74:
                    4c:a6:2f:a9:a5:be:0f:6e:47:a4:ee:d9:64:3b:ab:
                    b7:af:98:5a:78:11:49:94:f8:df:b6:6b:fb:0d:6a:
                    d1:03:da:f8:f1:ea:b2:b5:12:71:2b:fb:4d:0a:fe:
                    91:31:5e:ba:1d:5c:74:0a:00:8f:ae:6d:42:90:40:
                    f7:33
                Exponent: 65537 (0x10001)
        X509v3 extensions:
            X509v3 Extended Key Usage: 
                TLS Web Server Authentication
    Signature Algorithm: md5WithRSAEncryption
        cb:2f:34:28:6d:ca:fa:b9:9c:82:26:31:34:a8:68:58:a1:6e:
        83:3b:de:62:20:90:4f:87:0d:0a:3a:dc:d1:8d:de:0c:e2:de:
        29:44:4c:79:3d:46:2c:d4:29:32:d9:7e:57:8a:47:88:8a:d1:
        7b:94:a8:e2:2d:d5:96:32:26:d1:7d:83:59:b9:79:07:80:ab:
        65:c1:82:f3:e8:af:b3:0f:a2:c5:05:04:3b:2b:ba:2a:02:1e:
        b7:6c:76:6f:07:88:2b:de:17:3d:d0:df:13:84:d1:22:73:b5:
        b1:27:95:22:3d:fb:6d:70:df:0b:dc:02:01:7c:d9:e9:16:39:
        be:1f:fc:8d:2c:08:e0:04:c1:6d:d5:22:3a:5a:2b:d2:8d:15:
        4e:3e:f7:98:e1:69:ce:3b:65:8d:6e:05:88:89:f5:cf:8e:fe:
        8b:fa:3d:c4:ad:a2:87:ab:b5:4e:26:e1:c6:94:ab:8c:46:00:
        4b:e8:10:eb:c4:7f:e0:43:f0:6b:83:94:74:ae:95:8e:3f:18:
        ed:cd:6b:a4:06:03:34:80:ca:46:f6:1c:ed:09:ad:8f:9d:ff:
        10:0f:b0:bf:12:20:71:40:bd:c0:d7:58:3d:a6:b8:22:cd:ba:
        d7:cd:f8:9a:72:86:31:60:3b:4b:cf:57:7a:b6:29:d8:52:49:
        61:c3:c3:08
-----BEGIN CERTIFICATE-----
MIIDkjCCAnqgAwIBAgIBATANBgkqhkiG9w0BAQQFADCBiTELMAkGA1UEBhMCVVMx
FjAUBgNVBAgTDU1hc3NhY2h1c2V0dHMxEjAQBgNVBAcTCUNhbWJyaWRnZTEOMAwG
A1UEChMFRmFiRmkxHjAcBgkqhkiG9w0BCQEWD2FkbWluQGZhYmZpLm5ldDEeMBwG
A1UEAxMVRmFiRmkgR2xvYmFsIFByb2plY3RzMB4XDTExMDkyMDEwNTIxMVoXDTEy
MDkxOTEwNTIxMVowdjELMAkGA1UEBhMCVVMxFjAUBgNVBAgTDU1hc3NhY2h1c2V0
dHMxDjAMBgNVBAoTBUZhYkZpMR8wHQYDVQQDExZVU0EgU2VydmVyIENlcnRpZmlj
YXRlMR4wHAYJKoZIhvcNAQkBFg9hZG1pbkBmYWJmaS5uZXQwggEiMA0GCSqGSIb3
DQEBAQUAA4IBDwAwggEKAoIBAQDRf51RbYL1B9jlQJURMJzjZmy3HnmF5GRbCUss
MlvW8TPJ0kHqtl2nT9hPTAUhxfxfuLbvIiV2KZ/BcJ5bI2et/qP1sSAOZcpmZO43
UNL7nJLdO9mq5lcRvnBqVQK1yHj1EIWEMXujiInhNUDugjb4d9f8qPlXARBPpt7K
vlGLVmrBmLAoEklf3OYzTNg1ONCX5RfdJ3hq2UvL1+iBVAkgvOtPmaoekDKT4RXd
w8IfpSE56lKgCeMCrUt4X1LX3uBEdEymL6mlvg9uR6Tu2WQ7q7evmFp4EUmU+N+2
a/sNatED2vjx6rK1EnEr+00K/pExXrodXHQKAI+ubUKQQPczAgMBAAGjFzAVMBMG
A1UdJQQMMAoGCCsGAQUFBwMBMA0GCSqGSIb3DQEBBAUAA4IBAQDLLzQobcr6uZyC
JjE0qGhYoW6DO95iIJBPhw0KOtzRjd4M4t4pREx5PUYs1Cky2X5XikeIitF7lKji
LdWWMibRfYNZuXkHgKtlwYLz6K+zD6LFBQQ7K7oqAh63bHZvB4gr3hc90N8ThNEi
c7WxJ5UiPfttcN8L3AIBfNnpFjm+H/yNLAjgBMFt1SI6WivSjRVOPveY4WnOO2WN
bgWIifXPjv6L+j3EraKHq7VOJuHGlKuMRgBL6BDrxH/gQ/Brg5R0rpWOPxjtzWuk
BgM0gMpG9hztCa2Pnf8QD7C/EiBxQL3A11g9prgizbrXzfiacoYxYDtLz1d6tinY
Uklhw8MI
-----END CERTIFICATE-----
